target datalayout = "e-m:e-p270:32:32-p271:32:32-p272:64:64-i64:64-i128:128-f80:128-n8:16:32:64-S128"
target triple = "x86_64-pc-linux-gnu"

%"struct.cv::detail::CheckContext" = type { ptr, ptr, i32, i32, ptr, ptr, ptr }
%"class.cv::GStreamerCapture" = type { %"class.cv::IVideoCapture", %"class.cv::(anonymous namespace)::GSafePtr", %"class.cv::(anonymous namespace)::GSafePtr", %"class.cv::(anonymous namespace)::GSafePtr", %"class.cv::(anonymous namespace)::GSafePtr", %"class.cv::(anonymous namespace)::GSafePtr", %"class.cv::(anonymous namespace)::GSafePtr.0", %"class.cv::(anonymous namespace)::GSafePtr.0", %"class.cv::(anonymous namespace)::GSafePtr.0", %"class.cv::(anonymous namespace)::GSafePtr.1", %"class.cv::(anonymous namespace)::GSafePtr.1", i64, i64, i64, i64, i64, i64, i64, i64, i64, i64, i64, i32, i32, i64, i32, i32, double, i64, i64, i8, i8, i8, i8, i8, i8, i64, i32, i32, i32, i32, i32, i32, i32, %"class.std::__cxx11::basic_string", i64, %"class.cv::Mat", %"class.std::deque", i32, i32 }
%"class.cv::IVideoCapture" = type { ptr }
%"class.cv::(anonymous namespace)::GSafePtr" = type { ptr }
%"class.cv::(anonymous namespace)::GSafePtr.0" = type { ptr }
%"class.cv::(anonymous namespace)::GSafePtr.1" = type { ptr }
%"class.std::__cxx11::basic_string" = type { %"struct.std::__cxx11::basic_string<char>::_Alloc_hider", i64, %union.anon }
%"struct.std::__cxx11::basic_string<char>::_Alloc_hider" = type { ptr }
%union.anon = type { i64, [8 x i8] }
%"class.cv::Mat" = type { i32, i32, i32, i32, ptr, ptr, ptr, ptr, ptr, ptr, %"struct.cv::MatSize", %"struct.cv::MatStep" }
%"struct.cv::MatSize" = type { ptr }
%"struct.cv::MatStep" = type { ptr, [2 x i64] }
%"class.std::deque" = type { %"class.std::_Deque_base" }
%"class.std::_Deque_base" = type { %"struct.std::_Deque_base<unsigned char, std::allocator<unsigned char>>::_Deque_impl" }
%"struct.std::_Deque_base<unsigned char, std::allocator<unsigned char>>::_Deque_impl" = type { %"struct.std::_Deque_base<unsigned char, std::allocator<unsigned char>>::_Deque_impl_data" }
%"struct.std::_Deque_base<unsigned char, std::allocator<unsigned char>>::_Deque_impl_data" = type { ptr, i64, %"struct.std::_Deque_iterator", %"struct.std::_Deque_iterator" }
%"struct.std::_Deque_iterator" = type { ptr, ptr, ptr, ptr }

@_ZZN2cv16GStreamerCapture13retrieveFrameEiRKNS_12_OutputArrayEE16__cv_check__1147 = internal constant %"struct.cv::detail::CheckContext" { ptr @.str.77, ptr @.str.2, i32 1147, i32 5, ptr @.str.78, ptr @.str.79, ptr @.str.16 }, align 8
@_ZZN2cv16GStreamerCapture13retrieveFrameEiRKNS_12_OutputArrayEE16__cv_check__1160 = internal constant %"struct.cv::detail::CheckContext" { ptr @.str.77, ptr @.str.2, i32 1160, i32 5, ptr @.str.80, ptr @.str.81, ptr @.str.16 }, align 8

; Function Attrs: mustprogress uwtable
define hidden noundef zeroext i1 @_ZN2cv16GStreamerCapture13retrieveFrameEiRKNS_12_OutputArrayE(ptr noundef nonnull align 8 dereferenceable(496) %0, i32 noundef %1, ptr noundef nonnull align 8 dereferenceable(24) %2) unnamed_addr #4 align 2 {
  %4 = alloca i1, align 1
  %5 = alloca ptr, align 8
  %6 = alloca i32, align 4
  %7 = alloca ptr, align 8
  store ptr %0, ptr %5, align 8, !tbaa !3
  store i32 %1, ptr %6, align 4, !tbaa !99
  store ptr %2, ptr %7, align 8, !tbaa !188
  %8 = load ptr, ptr %5, align 8
  %9 = load i32, ptr %6, align 4, !tbaa !99
  %10 = icmp slt i32 %9, 0
  br i1 %10, label %11, label %12

11:                                               ; preds = %3
  store i1 false, ptr %4, align 1
  br label %57

12:                                               ; preds = %3
  %13 = load i32, ptr %6, align 4, !tbaa !99
  %14 = getelementptr inbounds nuw %"class.cv::GStreamerCapture", ptr %8, i32 0, i32 39
  %15 = load i32, ptr %14, align 8, !tbaa !68
  %16 = icmp slt i32 %13, %15
  br i1 %16, label %17, label %37

17:                                               ; preds = %12
  %18 = getelementptr inbounds nuw %"class.cv::GStreamerCapture", ptr %8, i32 0, i32 22
  %19 = load i32, ptr %18, align 8, !tbaa !51
  %20 = icmp eq i32 %19, -1
  br i1 %20, label %21, label %23

21:                                               ; preds = %17
  %22 = load ptr, ptr %7, align 8, !tbaa !188
  call void @_ZNK2cv12_OutputArray7releaseEv(ptr noundef nonnull align 8 dereferenceable(24) %22)
  store i1 false, ptr %4, align 1
  br label %57

23:                                               ; preds = %17
  br label %24

24:                                               ; preds = %23
  %25 = getelementptr inbounds nuw %"class.cv::GStreamerCapture", ptr %8, i32 0, i32 22
  %26 = load i32, ptr %25, align 8, !tbaa !51
  %27 = icmp sge i32 %26, 0
  br i1 %27, label %28, label %29

28:                                               ; preds = %24
  br label %32

29:                                               ; preds = %24
  %30 = getelementptr inbounds nuw %"class.cv::GStreamerCapture", ptr %8, i32 0, i32 22
  %31 = load i32, ptr %30, align 8, !tbaa !51
  call void @_ZN2cv6detail17check_failed_autoEiiRKNS0_12CheckContextE(i32 noundef %31, i32 noundef 0, ptr noundef nonnull align 8 dereferenceable(48) @_ZZN2cv16GStreamerCapture13retrieveFrameEiRKNS_12_OutputArrayEE16__cv_check__1147) #26
  unreachable

32:                                               ; preds = %28
  br label %33

33:                                               ; preds = %32
  %34 = load i32, ptr %6, align 4, !tbaa !99
  %35 = load ptr, ptr %7, align 8, !tbaa !188
  %36 = call noundef zeroext i1 @_ZN2cv16GStreamerCapture18retrieveVideoFrameEiRKNS_12_OutputArrayE(ptr noundef nonnull align 8 dereferenceable(496) %8, i32 noundef %34, ptr noundef nonnull align 8 dereferenceable(24) %35)
  store i1 %36, ptr %4, align 1
  br label %57

37:                                               ; preds = %12
  %38 = getelementptr inbounds nuw %"class.cv::GStreamerCapture", ptr %8, i32 0, i32 23
  %39 = load i32, ptr %38, align 4, !tbaa !52
  %40 = icmp eq i32 %39, -1
  br i1 %40, label %41, label %43

41:                                               ; preds = %37
  %42 = load ptr, ptr %7, align 8, !tbaa !188
  call void @_ZNK2cv12_OutputArray7releaseEv(ptr noundef nonnull align 8 dereferenceable(24) %42)
  store i1 false, ptr %4, align 1
  br label %57

43:                                               ; preds = %37
  br label %44

44:                                               ; preds = %43
  %45 = getelementptr inbounds nuw %"class.cv::GStreamerCapture", ptr %8, i32 0, i32 23
  %46 = load i32, ptr %45, align 4, !tbaa !52
  %47 = icmp sge i32 %46, 0
  br i1 %47, label %48, label %49

48:                                               ; preds = %44
  br label %52

49:                                               ; preds = %44
  %50 = getelementptr inbounds nuw %"class.cv::GStreamerCapture", ptr %8, i32 0, i32 23
  %51 = load i32, ptr %50, align 4, !tbaa !52
  call void @_ZN2cv6detail17check_failed_autoEiiRKNS0_12CheckContextE(i32 noundef %51, i32 noundef 0, ptr noundef nonnull align 8 dereferenceable(48) @_ZZN2cv16GStreamerCapture13retrieveFrameEiRKNS_12_OutputArrayEE16__cv_check__1160) #26
  unreachable

52:                                               ; preds = %48
  br label %53

53:                                               ; preds = %52
  %54 = load i32, ptr %6, align 4, !tbaa !99
  %55 = load ptr, ptr %7, align 8, !tbaa !188
  %56 = call noundef zeroext i1 @_ZN2cv16GStreamerCapture18retrieveAudioFrameEiRKNS_12_OutputArrayE(ptr noundef nonnull align 8 dereferenceable(496) %8, i32 noundef %54, ptr noundef nonnull align 8 dereferenceable(24) %55)
  store i1 %56, ptr %4, align 1
  br label %57

57:                                               ; preds = %53, %41, %33, %21, %11
  %58 = load i1, ptr %4, align 1
  ret i1 %58
}