; Function Attrs: mustprogress uwtable
define hidden noundef zeroext i1 @_ZN2cv16GStreamerCapture13retrieveFrameEiRKNS_12_OutputArrayE(ptr noundef nonnull align 8 dereferenceable(496) %0, i32 noundef %1, ptr noundef nonnull align 8 dereferenceable(24) %2) unnamed_addr #3 align 2 {
  %4 = icmp slt i32 %1, 0
  br i1 %4, label %29, label %5

5:                                                ; preds = %3
  %6 = getelementptr inbounds nuw i8, ptr %0, i64 248
  %7 = load i32, ptr %6, align 8, !tbaa !46
  %8 = icmp slt i32 %1, %7
  br i1 %8, label %9, label %19

9:                                                ; preds = %5
  %10 = getelementptr inbounds nuw i8, ptr %0, i64 176
  %11 = load i32, ptr %10, align 8, !tbaa !153
  %12 = icmp eq i32 %11, -1
  br i1 %12, label %13, label %14

13:                                               ; preds = %9
  tail call void @_ZNK2cv12_OutputArray7releaseEv(ptr noundef nonnull align 8 dereferenceable(24) %2)
  br label %29

14:                                               ; preds = %9
  %15 = icmp sgt i32 %11, -1
  br i1 %15, label %17, label %16

16:                                               ; preds = %14
  tail call void @_ZN2cv6detail17check_failed_autoEiiRKNS0_12CheckContextE(i32 noundef %11, i32 noundef 0, ptr noundef nonnull align 8 dereferenceable(48) @_ZZN2cv16GStreamerCapture13retrieveFrameEiRKNS_12_OutputArrayEE16__cv_check__1147) #34
  unreachable

17:                                               ; preds = %14
  %18 = tail call noundef zeroext i1 @_ZN2cv16GStreamerCapture18retrieveVideoFrameEiRKNS_12_OutputArrayE(ptr noundef nonnull align 8 dereferenceable(496) %0, i32 poison, ptr noundef nonnull align 8 dereferenceable(24) %2)
  br label %29

19:                                               ; preds = %5
  %20 = getelementptr inbounds nuw i8, ptr %0, i64 180
  %21 = load i32, ptr %20, align 4, !tbaa !161
  %22 = icmp eq i32 %21, -1
  br i1 %22, label %23, label %24

23:                                               ; preds = %19
  tail call void @_ZNK2cv12_OutputArray7releaseEv(ptr noundef nonnull align 8 dereferenceable(24) %2)
  br label %29

24:                                               ; preds = %19
  %25 = icmp sgt i32 %21, -1
  br i1 %25, label %27, label %26

26:                                               ; preds = %24
  tail call void @_ZN2cv6detail17check_failed_autoEiiRKNS0_12CheckContextE(i32 noundef %21, i32 noundef 0, ptr noundef nonnull align 8 dereferenceable(48) @_ZZN2cv16GStreamerCapture13retrieveFrameEiRKNS_12_OutputArrayEE16__cv_check__1160) #34
  unreachable

27:                                               ; preds = %24
  %28 = tail call noundef zeroext i1 @_ZN2cv16GStreamerCapture18retrieveAudioFrameEiRKNS_12_OutputArrayE(ptr noundef nonnull align 8 dereferenceable(496) %0, i32 noundef %1, ptr noundef nonnull align 8 dereferenceable(24) %2)
  br label %29

29:                                               ; preds = %3, %27, %23, %17, %13
  %.0 = phi i1 [ false, %13 ], [ %18, %17 ], [ false, %23 ], [ %28, %27 ], [ false, %3 ]
  ret i1 %.0
}